target datalayout = "e-m:e-p270:32:32-p271:32:32-p272:64:64-i64:64-i128:128-f80:128-n8:16:32:64-S128"
target triple = "x86_64-pc-linux-gnu"

%struct.Vec_Int_t_ = type { i32, i32, ptr }
%struct.Gia_Man_t_ = type { ptr, ptr, i32, i32, i32, i32, ptr, ptr, i32, i32, i32, ptr, ptr, %struct.Vec_Int_t_, %struct.Vec_Int_t_, i32, i32, i32, %struct.Vec_Int_t_, ptr, ptr, ptr, i32, i32, i32, i32, ptr, ptr, ptr, ptr, ptr, i32, i32, ptr, i32, ptr, ptr, ptr, ptr, ptr, ptr, ptr, ptr, ptr, ptr, ptr, ptr, ptr, ptr, ptr, ptr, ptr, ptr, %struct.Vec_Int_t_, %struct.Vec_Int_t_, ptr, ptr, ptr, ptr, ptr, ptr, ptr, ptr, ptr, ptr, ptr, ptr, ptr, ptr, ptr, ptr, ptr, ptr, ptr, ptr, ptr, i32, float, float, ptr, ptr, i32, ptr, ptr, ptr, ptr, ptr, ptr, ptr, ptr, ptr, ptr, ptr, ptr, ptr, ptr, ptr, i64, i64, ptr, ptr, i32, i32, i32, i32, i32, i32, i32, i32, i32, i32, i32, i32, ptr, ptr, ptr, ptr, ptr, ptr, ptr, ptr, i32, i32, i32, ptr, i32, i32, ptr, ptr, ptr, ptr, ptr, ptr, i32, i32, ptr, %struct.Vec_Int_t_, %struct.Vec_Int_t_, %struct.Vec_Int_t_, ptr, ptr, ptr }

; Function Attrs: nounwind uwtable
define internal i32 @Abc_LitIsCompl(i32 noundef %0) #0 {
  %2 = alloca i32, align 4
  store i32 %0, ptr %2, align 4
  %3 = load i32, ptr %2, align 4
  %4 = and i32 %3, 1
  ret i32 %4
}

; Function Attrs: nounwind uwtable
define internal i32 @Abc_Lit2Var(i32 noundef %0) #0 {
  %2 = alloca i32, align 4
  store i32 %0, ptr %2, align 4
  %3 = load i32, ptr %2, align 4
  %4 = ashr i32 %3, 1
  ret i32 %4
}

; Function Attrs: nounwind uwtable
define internal i32 @Gia_ObjId(ptr noundef %0, ptr noundef %1) #0 {
  %3 = alloca ptr, align 8
  %4 = alloca ptr, align 8
  store ptr %0, ptr %3, align 8
  store ptr %1, ptr %4, align 8
  %5 = load ptr, ptr %4, align 8
  %6 = load ptr, ptr %3, align 8
  %7 = getelementptr inbounds %struct.Gia_Man_t_, ptr %6, i32 0, i32 6
  %8 = load ptr, ptr %7, align 8
  %9 = ptrtoint ptr %5 to i64
  %10 = ptrtoint ptr %8 to i64
  %11 = sub i64 %9, %10
  %12 = sdiv exact i64 %11, 12
  %13 = trunc i64 %12 to i32
  ret i32 %13
}

; Function Attrs: nounwind uwtable
define internal i32 @Gia_ManAppendBuf(ptr noundef %0, i32 noundef %1) #0 {
  %3 = alloca ptr, align 8
  %4 = alloca i32, align 4
  %5 = alloca ptr, align 8
  store ptr %0, ptr %3, align 8
  store i32 %1, ptr %4, align 4
  %6 = load ptr, ptr %3, align 8
  %7 = call ptr @Gia_ManAppendObj(ptr noundef %6)
  store ptr %7, ptr %5, align 8
  %8 = load ptr, ptr %3, align 8
  %9 = load ptr, ptr %5, align 8
  %10 = call i32 @Gia_ObjId(ptr noundef %8, ptr noundef %9)
  %11 = load i32, ptr %4, align 4
  %12 = call i32 @Abc_Lit2Var(i32 noundef %11)
  %13 = sub nsw i32 %10, %12
  %14 = load ptr, ptr %5, align 8
  %15 = zext i32 %13 to i64
  %16 = load i64, ptr %14, align 4
  %17 = and i64 %15, 536870911
  %18 = shl i64 %17, 32
  %19 = and i64 %16, -2305843004918726657
  %20 = or i64 %19, %18
  store i64 %20, ptr %14, align 4
  %21 = trunc i64 %17 to i32
  %22 = load ptr, ptr %5, align 8
  %23 = zext i32 %21 to i64
  %24 = load i64, ptr %22, align 4
  %25 = and i64 %23, 536870911
  %26 = and i64 %24, -536870912
  %27 = or i64 %26, %25
  store i64 %27, ptr %22, align 4
  %28 = load i32, ptr %4, align 4
  %29 = call i32 @Abc_LitIsCompl(i32 noundef %28)
  %30 = load ptr, ptr %5, align 8
  %31 = zext i32 %29 to i64
  %32 = load i64, ptr %30, align 4
  %33 = and i64 %31, 1
  %34 = shl i64 %33, 61
  %35 = and i64 %32, -2305843009213693953
  %36 = or i64 %35, %34
  store i64 %36, ptr %30, align 4
  %37 = trunc i64 %33 to i32
  %38 = load ptr, ptr %5, align 8
  %39 = zext i32 %37 to i64
  %40 = load i64, ptr %38, align 4
  %41 = and i64 %39, 1
  %42 = shl i64 %41, 29
  %43 = and i64 %40, -536870913
  %44 = or i64 %43, %42
  store i64 %44, ptr %38, align 4
  %45 = load ptr, ptr %3, align 8
  %46 = getelementptr inbounds %struct.Gia_Man_t_, ptr %45, i32 0, i32 10
  %47 = load i32, ptr %46, align 8
  %48 = add nsw i32 %47, 1
  store i32 %48, ptr %46, align 8
  %49 = load ptr, ptr %3, align 8
  %50 = load ptr, ptr %5, align 8
  %51 = call i32 @Gia_ObjId(ptr noundef %49, ptr noundef %50)
  %52 = shl i32 %51, 1
  ret i32 %52
}