; Function Attrs: nounwind uwtable
define internal fastcc range(i32 0, -1) i32 @Gia_ManAppendBuf(ptr noundef captures(none) %0, i32 noundef %1) unnamed_addr #0 {
  %3 = tail call fastcc ptr @Gia_ManAppendObj(ptr noundef %0)
  %4 = getelementptr i8, ptr %0, i64 32
  %.val = load ptr, ptr %4, align 8
  %5 = ptrtoint ptr %3 to i64
  %6 = ptrtoint ptr %.val to i64
  %7 = sub i64 %5, %6
  %8 = sdiv exact i64 %7, 12
  %9 = trunc i64 %8 to i32
  %10 = lshr i32 %1, 1
  %11 = sub i32 %9, %10
  %12 = load i64, ptr %3, align 4
  %13 = and i32 %11, 536870911
  %14 = zext nneg i32 %13 to i64
  %15 = shl nuw nsw i64 %14, 32
  %16 = and i64 %12, -4611686015206162432
  %17 = or disjoint i64 %15, %16
  %18 = and i32 %1, 1
  %19 = zext nneg i32 %18 to i64
  %20 = shl nuw nsw i64 %19, 61
  %21 = or disjoint i64 %17, %20
  %22 = shl nuw nsw i32 %18, 29
  %23 = zext nneg i32 %22 to i64
  %24 = or disjoint i64 %21, %23
  %25 = or disjoint i64 %24, %14
  store i64 %25, ptr %3, align 4
  %26 = getelementptr inbounds nuw i8, ptr %0, i64 56
  %27 = load i32, ptr %26, align 8
  %28 = add nsw i32 %27, 1
  store i32 %28, ptr %26, align 8
  %.val11 = load ptr, ptr %4, align 8
  %29 = ptrtoint ptr %.val11 to i64
  %30 = sub i64 %5, %29
  %31 = sdiv exact i64 %30, 12
  %32 = trunc i64 %31 to i32
  %33 = shl i32 %32, 1
  ret i32 %33
}